target datalayout = "e-m:e-p270:32:32-p271:32:32-p272:64:64-i64:64-i128:128-f80:128-n8:16:32:64-S128"
target triple = "x86_64-pc-linux-gnu"

%"class.zxing::Ref" = type { ptr }
%"class.zxing::Ref.2" = type { ptr }
%"class.zxing::ArrayRef.3" = type { %"class.zxing::Counted.base", ptr }
%"class.zxing::Counted.base" = type <{ ptr, i32 }>
%"class.zxing::HybridBinarizer" = type <{ %"class.zxing::GlobalHistogramBinarizer.base", [7 x i8], %"class.zxing::Ref.2", %"class.zxing::ArrayRef.1", %"class.zxing::ArrayRef.3", %"class.zxing::ArrayRef.1", i32, i32, i32, i32, i32, [4 x i8] }>
%"class.zxing::GlobalHistogramBinarizer.base" = type <{ %"class.zxing::Binarizer", %"class.zxing::ArrayRef", %"class.zxing::ArrayRef.1", i8 }>
%"class.zxing::Binarizer" = type { %"class.zxing::Counted.base", %"class.zxing::Ref", i8, i8, i32, i32, i32, i32, %"class.zxing::Ref.0", %"class.zxing::Ref.0", %"class.zxing::Ref.0" }
%"class.zxing::Ref.0" = type { ptr }
%"class.zxing::ArrayRef" = type { %"class.zxing::Counted.base", ptr }
%"class.zxing::ArrayRef.1" = type { %"class.zxing::Counted.base", ptr }
%"class.zxing::Counted" = type <{ ptr, i32, [4 x i8] }>

; Function Attrs: mustprogress nounwind uwtable
define linkonce_odr hidden noundef ptr @_ZN5zxing7Counted6retainEv(ptr noundef nonnull align 8 dereferenceable(12) %0) #2 comdat align 2 {
  %2 = alloca ptr, align 8
  store ptr %0, ptr %2, align 8, !tbaa !132
  %3 = load ptr, ptr %2, align 8
  %4 = getelementptr inbounds nuw %"class.zxing::Counted", ptr %3, i32 0, i32 1
  %5 = load i32, ptr %4, align 8, !tbaa !134
  %6 = add i32 %5, 1
  store i32 %6, ptr %4, align 8, !tbaa !134
  ret ptr %3
}

; Function Attrs: mustprogress nounwind uwtable
define linkonce_odr hidden void @_ZN5zxing7Counted7releaseEv(ptr noundef nonnull align 8 dereferenceable(12) %0) #2 comdat align 2 {
  %2 = alloca ptr, align 8
  store ptr %0, ptr %2, align 8, !tbaa !132
  %3 = load ptr, ptr %2, align 8
  %4 = getelementptr inbounds nuw %"class.zxing::Counted", ptr %3, i32 0, i32 1
  %5 = load i32, ptr %4, align 8, !tbaa !134
  %6 = add i32 %5, -1
  store i32 %6, ptr %4, align 8, !tbaa !134
  %7 = getelementptr inbounds nuw %"class.zxing::Counted", ptr %3, i32 0, i32 1
  %8 = load i32, ptr %7, align 8, !tbaa !134
  %9 = icmp eq i32 %8, 0
  br i1 %9, label %10, label %18

10:                                               ; preds = %1
  %11 = getelementptr inbounds nuw %"class.zxing::Counted", ptr %3, i32 0, i32 1
  store i32 -559026175, ptr %11, align 8, !tbaa !134
  %12 = icmp eq ptr %3, null
  br i1 %12, label %17, label %13

13:                                               ; preds = %10
  %14 = load ptr, ptr %3, align 8, !tbaa !10
  %15 = getelementptr inbounds ptr, ptr %14, i64 1
  %16 = load ptr, ptr %15, align 8
  call void %16(ptr noundef nonnull align 8 dereferenceable(12) %3) #12
  br label %17

17:                                               ; preds = %13, %10
  br label %18

18:                                               ; preds = %17, %1
  ret void
}

; Function Attrs: mustprogress nounwind uwtable
define linkonce_odr hidden void @_ZN5zxing3RefINS_9BitMatrixEE5resetEPS1_(ptr noundef nonnull align 8 dereferenceable(8) %0, ptr noundef %1) #2 comdat align 2 {
  %3 = alloca ptr, align 8
  %4 = alloca ptr, align 8
  store ptr %0, ptr %3, align 8, !tbaa !80
  store ptr %1, ptr %4, align 8, !tbaa !83
  %5 = load ptr, ptr %3, align 8
  %6 = load ptr, ptr %4, align 8, !tbaa !83
  %7 = icmp ne ptr %6, null
  br i1 %7, label %8, label %11

8:                                                ; preds = %2
  %9 = load ptr, ptr %4, align 8, !tbaa !83
  %10 = call noundef ptr @_ZN5zxing7Counted6retainEv(ptr noundef nonnull align 8 dereferenceable(12) %9)
  br label %11

11:                                               ; preds = %8, %2
  %12 = getelementptr inbounds nuw %"class.zxing::Ref.0", ptr %5, i32 0, i32 0
  %13 = load ptr, ptr %12, align 8, !tbaa !82
  %14 = icmp ne ptr %13, null
  br i1 %14, label %15, label %18

15:                                               ; preds = %11
  %16 = getelementptr inbounds nuw %"class.zxing::Ref.0", ptr %5, i32 0, i32 0
  %17 = load ptr, ptr %16, align 8, !tbaa !82
  call void @_ZN5zxing7Counted7releaseEv(ptr noundef nonnull align 8 dereferenceable(12) %17)
  br label %18

18:                                               ; preds = %15, %11
  %19 = load ptr, ptr %4, align 8, !tbaa !83
  %20 = getelementptr inbounds nuw %"class.zxing::Ref.0", ptr %5, i32 0, i32 0
  store ptr %19, ptr %20, align 8, !tbaa !82
  ret void
}

; Function Attrs: mustprogress nounwind uwtable
define linkonce_odr hidden noundef nonnull align 8 dereferenceable(8) ptr @_ZN5zxing3RefINS_9BitMatrixEEaSERKS2_(ptr noundef nonnull align 8 dereferenceable(8) %0, ptr noundef nonnull align 8 dereferenceable(8) %1) #2 comdat align 2 {
  %3 = alloca ptr, align 8
  %4 = alloca ptr, align 8
  store ptr %0, ptr %3, align 8, !tbaa !80
  store ptr %1, ptr %4, align 8, !tbaa !80
  %5 = load ptr, ptr %3, align 8
  %6 = load ptr, ptr %4, align 8, !tbaa !80
  %7 = getelementptr inbounds nuw %"class.zxing::Ref.0", ptr %6, i32 0, i32 0
  %8 = load ptr, ptr %7, align 8, !tbaa !82
  call void @_ZN5zxing3RefINS_9BitMatrixEE5resetEPS1_(ptr noundef nonnull align 8 dereferenceable(8) %5, ptr noundef %8)
  ret ptr %5
}

; Function Attrs: mustprogress nounwind uwtable
define linkonce_odr hidden void @_ZN5zxing3RefINS_9BitMatrixEED2Ev(ptr noundef nonnull align 8 dereferenceable(8) %0) unnamed_addr #2 comdat align 2 {
  %2 = alloca ptr, align 8
  store ptr %0, ptr %2, align 8, !tbaa !80
  %3 = load ptr, ptr %2, align 8
  %4 = getelementptr inbounds nuw %"class.zxing::Ref.0", ptr %3, i32 0, i32 0
  %5 = load ptr, ptr %4, align 8, !tbaa !82
  %6 = icmp ne ptr %5, null
  br i1 %6, label %7, label %10

7:                                                ; preds = %1
  %8 = getelementptr inbounds nuw %"class.zxing::Ref.0", ptr %3, i32 0, i32 0
  %9 = load ptr, ptr %8, align 8, !tbaa !82
  call void @_ZN5zxing7Counted7releaseEv(ptr noundef nonnull align 8 dereferenceable(12) %9)
  br label %10

10:                                               ; preds = %7, %1
  ret void
}

; Function Attrs: mustprogress uwtable
define linkonce_odr hidden void @_ZN5zxing3RefINS_9BitMatrixEEC2EPS1_(ptr noundef nonnull align 8 dereferenceable(8) %0, ptr noundef %1) unnamed_addr #0 comdat align 2 {
  %3 = alloca ptr, align 8
  %4 = alloca ptr, align 8
  store ptr %0, ptr %3, align 8, !tbaa !80
  store ptr %1, ptr %4, align 8, !tbaa !83
  %5 = load ptr, ptr %3, align 8
  %6 = getelementptr inbounds nuw %"class.zxing::Ref.0", ptr %5, i32 0, i32 0
  store ptr null, ptr %6, align 8, !tbaa !82
  %7 = load ptr, ptr %4, align 8, !tbaa !83
  call void @_ZN5zxing3RefINS_9BitMatrixEE5resetEPS1_(ptr noundef nonnull align 8 dereferenceable(8) %5, ptr noundef %7)
  ret void
}

; Function Attrs: mustprogress uwtable
define hidden noundef i32 @_ZN5zxing15HybridBinarizer15binarizeByBlockERNS_12ErrorHandlerE(ptr noundef nonnull align 8 dereferenceable(228) %0, ptr noundef nonnull align 8 dereferenceable(48) %1) #0 align 2 personality ptr @__gxx_personality_v0 {
  %3 = alloca i32, align 4
  %4 = alloca ptr, align 8
  %5 = alloca ptr, align 8
  %6 = alloca %"class.zxing::Ref.0", align 8
  %7 = alloca ptr, align 8
  %8 = alloca i32, align 4
  %9 = alloca i32, align 4
  %10 = alloca %"class.zxing::Ref.0", align 8
  store ptr %0, ptr %4, align 8, !tbaa !3
  store ptr %1, ptr %5, align 8, !tbaa !78
  %11 = load ptr, ptr %4, align 8
  %12 = getelementptr inbounds nuw %"class.zxing::Binarizer", ptr %11, i32 0, i32 6
  %13 = load i32, ptr %12, align 4, !tbaa !12
  %14 = icmp sge i32 %13, 40
  br i1 %14, label %15, label %67

15:                                               ; preds = %2
  %16 = getelementptr inbounds nuw %"class.zxing::Binarizer", ptr %11, i32 0, i32 7
  %17 = load i32, ptr %16, align 8, !tbaa !22
  %18 = icmp sge i32 %17, 40
  br i1 %18, label %19, label %67

19:                                               ; preds = %15
  call void @llvm.lifetime.start.p0(i64 8, ptr %6) #12
  %20 = call noalias noundef nonnull ptr @_Znwm(i64 noundef 352) #13
  %21 = getelementptr inbounds nuw %"class.zxing::Binarizer", ptr %11, i32 0, i32 6
  %22 = load i32, ptr %21, align 4, !tbaa !12
  %23 = getelementptr inbounds nuw %"class.zxing::Binarizer", ptr %11, i32 0, i32 7
  %24 = load i32, ptr %23, align 8, !tbaa !22
  %25 = load ptr, ptr %5, align 8, !tbaa !78
  invoke void @_ZN5zxing9BitMatrixC1EiiRNS_12ErrorHandlerE(ptr noundef nonnull align 8 dereferenceable(346) %20, i32 noundef %22, i32 noundef %24, ptr noundef nonnull align 8 dereferenceable(48) %25)
          to label %26 unwind label %35

26:                                               ; preds = %19
  call void @_ZN5zxing3RefINS_9BitMatrixEEC2EPS1_(ptr noundef nonnull align 8 dereferenceable(8) %6, ptr noundef %20)
  %27 = load ptr, ptr %5, align 8, !tbaa !78
  %28 = load ptr, ptr %27, align 8, !tbaa !10
  %29 = getelementptr inbounds ptr, ptr %28, i64 2
  %30 = load ptr, ptr %29, align 8
  %31 = invoke noundef i32 %30(ptr noundef nonnull align 8 dereferenceable(48) %27)
          to label %32 unwind label %39

32:                                               ; preds = %26
  %33 = icmp ne i32 %31, 0
  br i1 %33, label %34, label %43

34:                                               ; preds = %32
  store i32 -1, ptr %3, align 4
  store i32 1, ptr %9, align 4
  br label %63

35:                                               ; preds = %19
  %36 = landingpad { ptr, i32 }
          cleanup
  %37 = extractvalue { ptr, i32 } %36, 0
  store ptr %37, ptr %7, align 8
  %38 = extractvalue { ptr, i32 } %36, 1
  store i32 %38, ptr %8, align 4
  call void @_ZdlPv(ptr noundef %20) #14
  br label %66

39:                                               ; preds = %59, %50, %43, %26
  %40 = landingpad { ptr, i32 }
          cleanup
  %41 = extractvalue { ptr, i32 } %40, 0
  store ptr %41, ptr %7, align 8
  %42 = extractvalue { ptr, i32 } %40, 1
  store i32 %42, ptr %8, align 4
  call void @_ZN5zxing3RefINS_9BitMatrixEED2Ev(ptr noundef nonnull align 8 dereferenceable(8) %6) #12
  br label %66

43:                                               ; preds = %32
  %44 = getelementptr inbounds nuw %"class.zxing::HybridBinarizer", ptr %11, i32 0, i32 2
  %45 = getelementptr inbounds nuw %"class.zxing::HybridBinarizer", ptr %11, i32 0, i32 7
  %46 = load i32, ptr %45, align 4, !tbaa !23
  %47 = getelementptr inbounds nuw %"class.zxing::HybridBinarizer", ptr %11, i32 0, i32 8
  %48 = load i32, ptr %47, align 8, !tbaa !34
  %49 = load ptr, ptr %5, align 8, !tbaa !78
  invoke void @_ZN5zxing15HybridBinarizer26calculateThresholdForBlockERNS_3RefINS_10ByteMatrixEEEiiiRKNS1_INS_9BitMatrixEEERNS_12ErrorHandlerE(ptr noundef nonnull align 8 dereferenceable(228) %11, ptr noundef nonnull align 8 dereferenceable(8) %44, i32 noundef %46, i32 noundef %48, i32 noundef 3, ptr noundef nonnull align 8 dereferenceable(8) %6, ptr noundef nonnull align 8 dereferenceable(48) %49)
          to label %50 unwind label %39

50:                                               ; preds = %43
  %51 = load ptr, ptr %5, align 8, !tbaa !78
  %52 = load ptr, ptr %51, align 8, !tbaa !10
  %53 = getelementptr inbounds ptr, ptr %52, i64 2
  %54 = load ptr, ptr %53, align 8
  %55 = invoke noundef i32 %54(ptr noundef nonnull align 8 dereferenceable(48) %51)
          to label %56 unwind label %39

56:                                               ; preds = %50
  %57 = icmp ne i32 %55, 0
  br i1 %57, label %58, label %59

58:                                               ; preds = %56
  store i32 -1, ptr %3, align 4
  store i32 1, ptr %9, align 4
  br label %63

59:                                               ; preds = %56
  %60 = getelementptr inbounds nuw %"class.zxing::Binarizer", ptr %11, i32 0, i32 9
  %61 = invoke noundef nonnull align 8 dereferenceable(8) ptr @_ZN5zxing3RefINS_9BitMatrixEEaSERKS2_(ptr noundef nonnull align 8 dereferenceable(8) %60, ptr noundef nonnull align 8 dereferenceable(8) %6)
          to label %62 unwind label %39

62:                                               ; preds = %59
  store i32 0, ptr %9, align 4
  br label %63

63:                                               ; preds = %62, %58, %34
  call void @_ZN5zxing3RefINS_9BitMatrixEED2Ev(ptr noundef nonnull align 8 dereferenceable(8) %6) #12
  call void @llvm.lifetime.end.p0(i64 8, ptr %6) #12
  %64 = load i32, ptr %9, align 4
  switch i32 %64, label %92 [
    i32 0, label %65
    i32 1, label %85
  ]

65:                                               ; preds = %63
  br label %84

66:                                               ; preds = %39, %35
  call void @llvm.lifetime.end.p0(i64 8, ptr %6) #12
  br label %87

67:                                               ; preds = %15, %2
  call void @llvm.lifetime.start.p0(i64 8, ptr %10) #12
  %68 = load ptr, ptr %5, align 8, !tbaa !78
  call void @_ZN5zxing24GlobalHistogramBinarizer14getBlackMatrixERNS_12ErrorHandlerE(ptr dead_on_unwind writable sret(%"class.zxing::Ref.0") align 8 %10, ptr noundef nonnull align 8 dereferenceable(121) %11, ptr noundef nonnull align 8 dereferenceable(48) %68)
  %69 = getelementptr inbounds nuw %"class.zxing::Binarizer", ptr %11, i32 0, i32 9
  %70 = invoke noundef nonnull align 8 dereferenceable(8) ptr @_ZN5zxing3RefINS_9BitMatrixEEaSERKS2_(ptr noundef nonnull align 8 dereferenceable(8) %69, ptr noundef nonnull align 8 dereferenceable(8) %10)
          to label %71 unwind label %79

71:                                               ; preds = %67
  call void @_ZN5zxing3RefINS_9BitMatrixEED2Ev(ptr noundef nonnull align 8 dereferenceable(8) %10) #12
  call void @llvm.lifetime.end.p0(i64 8, ptr %10) #12
  %72 = load ptr, ptr %5, align 8, !tbaa !78
  %73 = load ptr, ptr %72, align 8, !tbaa !10
  %74 = getelementptr inbounds ptr, ptr %73, i64 2
  %75 = load ptr, ptr %74, align 8
  %76 = call noundef i32 %75(ptr noundef nonnull align 8 dereferenceable(48) %72)
  %77 = icmp ne i32 %76, 0
  br i1 %77, label %78, label %83

78:                                               ; preds = %71
  store i32 1, ptr %3, align 4
  br label %85

79:                                               ; preds = %67
  %80 = landingpad { ptr, i32 }
          cleanup
  %81 = extractvalue { ptr, i32 } %80, 0
  store ptr %81, ptr %7, align 8
  %82 = extractvalue { ptr, i32 } %80, 1
  store i32 %82, ptr %8, align 4
  call void @_ZN5zxing3RefINS_9BitMatrixEED2Ev(ptr noundef nonnull align 8 dereferenceable(8) %10) #12
  call void @llvm.lifetime.end.p0(i64 8, ptr %10) #12
  br label %87

83:                                               ; preds = %71
  br label %84

84:                                               ; preds = %83, %65
  store i32 1, ptr %3, align 4
  br label %85

85:                                               ; preds = %84, %78, %63
  %86 = load i32, ptr %3, align 4
  ret i32 %86

87:                                               ; preds = %79, %66
  %88 = load ptr, ptr %7, align 8
  %89 = load i32, ptr %8, align 4
  %90 = insertvalue { ptr, i32 } poison, ptr %88, 0
  %91 = insertvalue { ptr, i32 } %90, i32 %89, 1
  resume { ptr, i32 } %91

92:                                               ; preds = %63
  unreachable
}