; Function Attrs: mustprogress uwtable
define hidden noundef range(i32 -1, 2) i32 @_ZN5zxing15HybridBinarizer15binarizeByBlockERNS_12ErrorHandlerE(ptr noundef nonnull align 8 dereferenceable(228) %0, ptr noundef nonnull align 8 dereferenceable(48) %1) local_unnamed_addr #0 align 2 personality ptr @__gxx_personality_v0 {
  %3 = alloca %"class.zxing::Ref.0", align 8
  %4 = alloca %"class.zxing::Ref.0", align 8
  %5 = getelementptr inbounds nuw i8, ptr %0, i64 36
  %6 = load i32, ptr %5, align 4, !tbaa !23
  %7 = icmp sgt i32 %6, 39
  br i1 %7, label %8, label %68

8:                                                ; preds = %2
  %9 = getelementptr inbounds nuw i8, ptr %0, i64 40
  %10 = load i32, ptr %9, align 8, !tbaa !28
  %11 = icmp sgt i32 %10, 39
  br i1 %11, label %12, label %68

12:                                               ; preds = %8
  call void @llvm.lifetime.start.p0(i64 8, ptr nonnull %3) #10
  %13 = tail call noalias noundef nonnull dereferenceable(352) ptr @_Znwm(i64 noundef 352) #11
  invoke void @_ZN5zxing9BitMatrixC1EiiRNS_12ErrorHandlerE(ptr noundef nonnull align 8 dereferenceable(346) %13, i32 noundef %6, i32 noundef %10, ptr noundef nonnull align 8 dereferenceable(48) %1)
          to label %14 unwind label %23

14:                                               ; preds = %12
  %15 = getelementptr inbounds nuw i8, ptr %13, i64 8
  %16 = load i32, ptr %15, align 8, !tbaa !9
  %17 = add i32 %16, 1
  store i32 %17, ptr %15, align 8, !tbaa !9
  store ptr %13, ptr %3, align 8, !tbaa !70
  %18 = load ptr, ptr %1, align 8, !tbaa !12
  %19 = getelementptr inbounds nuw i8, ptr %18, i64 16
  %20 = load ptr, ptr %19, align 8
  %21 = invoke noundef i32 %20(ptr noundef nonnull align 8 dereferenceable(48) %1)
          to label %22 unwind label %25

22:                                               ; preds = %14
  %.not13 = icmp eq i32 %21, 0
  br i1 %.not13, label %34, label %60

23:                                               ; preds = %12
  %24 = landingpad { ptr, i32 }
          cleanup
  tail call void @_ZdlPv(ptr noundef nonnull %13) #13
  br label %_ZN5zxing3RefINS_9BitMatrixEED2Ev.exit

25:                                               ; preds = %14, %34, %40
  %26 = landingpad { ptr, i32 }
          cleanup
  %27 = load i32, ptr %15, align 8, !tbaa !9
  %28 = add i32 %27, -1
  store i32 %28, ptr %15, align 8, !tbaa !9
  %29 = icmp eq i32 %28, 0
  br i1 %29, label %30, label %_ZN5zxing3RefINS_9BitMatrixEED2Ev.exit

30:                                               ; preds = %25
  store i32 -559026175, ptr %15, align 8, !tbaa !9
  %31 = load ptr, ptr %13, align 8, !tbaa !12
  %32 = getelementptr inbounds nuw i8, ptr %31, i64 8
  %33 = load ptr, ptr %32, align 8
  tail call void %33(ptr noundef nonnull align 8 dereferenceable(12) %13) #10
  br label %_ZN5zxing3RefINS_9BitMatrixEED2Ev.exit

34:                                               ; preds = %22
  %35 = getelementptr inbounds nuw i8, ptr %0, i64 128
  %36 = getelementptr inbounds nuw i8, ptr %0, i64 212
  %37 = load i32, ptr %36, align 4, !tbaa !29
  %38 = getelementptr inbounds nuw i8, ptr %0, i64 216
  %39 = load i32, ptr %38, align 8, !tbaa !34
  invoke void @_ZN5zxing15HybridBinarizer26calculateThresholdForBlockERNS_3RefINS_10ByteMatrixEEEiiiRKNS1_INS_9BitMatrixEEERNS_12ErrorHandlerE(ptr noundef nonnull align 8 dereferenceable(228) %0, ptr noundef nonnull align 8 dereferenceable(8) %35, i32 noundef %37, i32 noundef %39, i32 noundef 3, ptr noundef nonnull align 8 dereferenceable(8) %3, ptr noundef nonnull align 8 dereferenceable(48) %1)
          to label %40 unwind label %25

40:                                               ; preds = %34
  %41 = load ptr, ptr %1, align 8, !tbaa !12
  %42 = getelementptr inbounds nuw i8, ptr %41, i64 16
  %43 = load ptr, ptr %42, align 8
  %44 = invoke noundef i32 %43(ptr noundef nonnull align 8 dereferenceable(48) %1)
          to label %45 unwind label %25

45:                                               ; preds = %40
  %.not15 = icmp eq i32 %44, 0
  br i1 %.not15, label %46, label %60

46:                                               ; preds = %45
  %47 = getelementptr inbounds nuw i8, ptr %0, i64 56
  %48 = load i32, ptr %15, align 8, !tbaa !9
  %49 = add i32 %48, 1
  store i32 %49, ptr %15, align 8, !tbaa !9
  %50 = load ptr, ptr %47, align 8, !tbaa !70
  %.not5.i.i = icmp eq ptr %50, null
  br i1 %.not5.i.i, label %_ZN5zxing3RefINS_9BitMatrixEEaSERKS2_.exit, label %51

51:                                               ; preds = %46
  %52 = getelementptr inbounds nuw i8, ptr %50, i64 8
  %53 = load i32, ptr %52, align 8, !tbaa !9
  %54 = add i32 %53, -1
  store i32 %54, ptr %52, align 8, !tbaa !9
  %55 = icmp eq i32 %54, 0
  br i1 %55, label %56, label %_ZN5zxing3RefINS_9BitMatrixEEaSERKS2_.exit

56:                                               ; preds = %51
  store i32 -559026175, ptr %52, align 8, !tbaa !9
  %57 = load ptr, ptr %50, align 8, !tbaa !12
  %58 = getelementptr inbounds nuw i8, ptr %57, i64 8
  %59 = load ptr, ptr %58, align 8
  tail call void %59(ptr noundef nonnull align 8 dereferenceable(12) %50) #10
  br label %_ZN5zxing3RefINS_9BitMatrixEEaSERKS2_.exit

_ZN5zxing3RefINS_9BitMatrixEEaSERKS2_.exit:       ; preds = %46, %51, %56
  store ptr %13, ptr %47, align 8, !tbaa !70
  br label %60

60:                                               ; preds = %_ZN5zxing3RefINS_9BitMatrixEEaSERKS2_.exit, %22, %45
  %switch = phi i1 [ true, %_ZN5zxing3RefINS_9BitMatrixEEaSERKS2_.exit ], [ false, %22 ], [ false, %45 ]
  %61 = load i32, ptr %15, align 8, !tbaa !9
  %62 = add i32 %61, -1
  store i32 %62, ptr %15, align 8, !tbaa !9
  %63 = icmp eq i32 %62, 0
  br i1 %63, label %64, label %_ZN5zxing3RefINS_9BitMatrixEED2Ev.exit17

64:                                               ; preds = %60
  store i32 -559026175, ptr %15, align 8, !tbaa !9
  %65 = load ptr, ptr %13, align 8, !tbaa !12
  %66 = getelementptr inbounds nuw i8, ptr %65, i64 8
  %67 = load ptr, ptr %66, align 8
  tail call void %67(ptr noundef nonnull align 8 dereferenceable(12) %13) #10
  br label %_ZN5zxing3RefINS_9BitMatrixEED2Ev.exit17

_ZN5zxing3RefINS_9BitMatrixEED2Ev.exit17:         ; preds = %60, %64
  call void @llvm.lifetime.end.p0(i64 8, ptr nonnull %3) #10
  br i1 %switch, label %100, label %101

_ZN5zxing3RefINS_9BitMatrixEED2Ev.exit:           ; preds = %30, %25, %23
  %.pn = phi { ptr, i32 } [ %24, %23 ], [ %26, %25 ], [ %26, %30 ]
  call void @llvm.lifetime.end.p0(i64 8, ptr nonnull %3) #10
  resume { ptr, i32 } %.pn

68:                                               ; preds = %8, %2
  call void @llvm.lifetime.start.p0(i64 8, ptr nonnull %4) #10
  call void @_ZN5zxing24GlobalHistogramBinarizer14getBlackMatrixERNS_12ErrorHandlerE(ptr dead_on_unwind nonnull writable sret(%"class.zxing::Ref.0") align 8 %4, ptr noundef nonnull align 8 dereferenceable(121) %0, ptr noundef nonnull align 8 dereferenceable(48) %1)
  %69 = getelementptr inbounds nuw i8, ptr %0, i64 56
  %70 = load ptr, ptr %4, align 8, !tbaa !70
  %.not.i.i18 = icmp eq ptr %70, null
  br i1 %.not.i.i18, label %75, label %71

71:                                               ; preds = %68
  %72 = getelementptr inbounds nuw i8, ptr %70, i64 8
  %73 = load i32, ptr %72, align 8, !tbaa !9
  %74 = add i32 %73, 1
  store i32 %74, ptr %72, align 8, !tbaa !9
  br label %75

75:                                               ; preds = %71, %68
  %76 = load ptr, ptr %69, align 8, !tbaa !70
  %.not5.i.i19 = icmp eq ptr %76, null
  br i1 %.not5.i.i19, label %_ZN5zxing3RefINS_9BitMatrixEEaSERKS2_.exit20, label %77

77:                                               ; preds = %75
  %78 = getelementptr inbounds nuw i8, ptr %76, i64 8
  %79 = load i32, ptr %78, align 8, !tbaa !9
  %80 = add i32 %79, -1
  store i32 %80, ptr %78, align 8, !tbaa !9
  %81 = icmp eq i32 %80, 0
  br i1 %81, label %82, label %_ZN5zxing3RefINS_9BitMatrixEEaSERKS2_.exit20

82:                                               ; preds = %77
  store i32 -559026175, ptr %78, align 8, !tbaa !9
  %83 = load ptr, ptr %76, align 8, !tbaa !12
  %84 = getelementptr inbounds nuw i8, ptr %83, i64 8
  %85 = load ptr, ptr %84, align 8
  call void %85(ptr noundef nonnull align 8 dereferenceable(12) %76) #10
  %.pre = load ptr, ptr %4, align 8, !tbaa !70
  br label %_ZN5zxing3RefINS_9BitMatrixEEaSERKS2_.exit20

_ZN5zxing3RefINS_9BitMatrixEEaSERKS2_.exit20:     ; preds = %75, %77, %82
  %86 = phi ptr [ %70, %75 ], [ %70, %77 ], [ %.pre, %82 ]
  store ptr %70, ptr %69, align 8, !tbaa !70
  %.not.i21 = icmp eq ptr %86, null
  br i1 %.not.i21, label %_ZN5zxing3RefINS_9BitMatrixEED2Ev.exit22, label %87

87:                                               ; preds = %_ZN5zxing3RefINS_9BitMatrixEEaSERKS2_.exit20
  %88 = getelementptr inbounds nuw i8, ptr %86, i64 8
  %89 = load i32, ptr %88, align 8, !tbaa !9
  %90 = add i32 %89, -1
  store i32 %90, ptr %88, align 8, !tbaa !9
  %91 = icmp eq i32 %90, 0
  br i1 %91, label %92, label %_ZN5zxing3RefINS_9BitMatrixEED2Ev.exit22

92:                                               ; preds = %87
  store i32 -559026175, ptr %88, align 8, !tbaa !9
  %93 = load ptr, ptr %86, align 8, !tbaa !12
  %94 = getelementptr inbounds nuw i8, ptr %93, i64 8
  %95 = load ptr, ptr %94, align 8
  call void %95(ptr noundef nonnull align 8 dereferenceable(12) %86) #10
  br label %_ZN5zxing3RefINS_9BitMatrixEED2Ev.exit22

_ZN5zxing3RefINS_9BitMatrixEED2Ev.exit22:         ; preds = %_ZN5zxing3RefINS_9BitMatrixEEaSERKS2_.exit20, %87, %92
  call void @llvm.lifetime.end.p0(i64 8, ptr nonnull %4) #10
  %96 = load ptr, ptr %1, align 8, !tbaa !12
  %97 = getelementptr inbounds nuw i8, ptr %96, i64 16
  %98 = load ptr, ptr %97, align 8
  %99 = call noundef i32 %98(ptr noundef nonnull align 8 dereferenceable(48) %1)
  %.not = icmp eq i32 %99, 0
  br i1 %.not, label %100, label %101

100:                                              ; preds = %_ZN5zxing3RefINS_9BitMatrixEED2Ev.exit17, %_ZN5zxing3RefINS_9BitMatrixEED2Ev.exit22
  br label %101

101:                                              ; preds = %_ZN5zxing3RefINS_9BitMatrixEED2Ev.exit22, %_ZN5zxing3RefINS_9BitMatrixEED2Ev.exit17, %100
  %.1 = phi i32 [ -1, %_ZN5zxing3RefINS_9BitMatrixEED2Ev.exit17 ], [ 1, %100 ], [ 1, %_ZN5zxing3RefINS_9BitMatrixEED2Ev.exit22 ]
  ret i32 %.1
}